; Function Attrs: mustprogress nofree norecurse nosync nounwind willreturn memory(read, inaccessiblemem: none) uwtable
define dso_local noundef zeroext i1 @_ZNK4node4quic9QuicErroreqERKS1_(ptr noundef nonnull readonly align 8 dereferenceable(88) %this, ptr noundef nonnull readonly align 8 dereferenceable(88) %other) local_unnamed_addr #9 align 2 {
entry:
  %cmp = icmp eq ptr %this, %other
  br i1 %cmp, label %return, label %if.end

if.end:                                           ; preds = %entry
  %ptr_.i = getelementptr inbounds i8, ptr %this, i64 80
  %0 = load ptr, ptr %ptr_.i, align 8
  %1 = load i32, ptr %0, align 8
  %ptr_.i4 = getelementptr inbounds i8, ptr %other, i64 80
  %2 = load ptr, ptr %ptr_.i4, align 8
  %3 = load i32, ptr %2, align 8
  %cmp3 = icmp eq i32 %1, %3
  br i1 %cmp3, label %land.lhs.true, label %return

land.lhs.true:                                    ; preds = %if.end
  %error_code.i = getelementptr inbounds i8, ptr %0, i64 8
  %4 = load i64, ptr %error_code.i, align 8
  %error_code.i7 = getelementptr inbounds i8, ptr %2, i64 8
  %5 = load i64, ptr %error_code.i7, align 8
  %cmp6 = icmp eq i64 %4, %5
  br i1 %cmp6, label %land.rhs, label %return

land.rhs:                                         ; preds = %land.lhs.true
  %frame_type.i = getelementptr inbounds i8, ptr %0, i64 16
  %6 = load i64, ptr %frame_type.i, align 8
  %frame_type.i10 = getelementptr inbounds i8, ptr %2, i64 16
  %7 = load i64, ptr %frame_type.i10, align 8
  %cmp9 = icmp eq i64 %6, %7
  br label %return

return:                                           ; preds = %if.end, %land.lhs.true, %land.rhs, %entry
  %retval.0 = phi i1 [ true, %entry ], [ false, %land.lhs.true ], [ false, %if.end ], [ %cmp9, %land.rhs ]
  ret i1 %retval.0
}